
There are no discarded input sections

Memory Configuration

Name             Origin             Length             Attributes
RAM              0x0000000080000000 0x0000000000200000 xrw
*default*        0x0000000000000000 0xffffffffffffffff

Linker script and memory map

                0x0000000000001000                STACK_SIZE = 0x1000
                0x0000000080000000                RAM_BASE = 0x80000000
                0x0000000000200000                RAM_SIZE = 0x200000
                0x0000000080000000                . = ORIGIN (RAM)

.text           0x0000000080000000     0xe000
 *(.text.boot)
 .text.boot     0x0000000080000000       0x3c out/./arch/riscv64//boot.o
                0x0000000080000000                _start
                0x0000000080001000                . = ALIGN (0x1000)
 *fill*         0x000000008000003c      0xfc4 
                0x0000000080001000                _text_start = .
 *(.text .text.*)
 .text          0x0000000080001000      0x850 out/.//elf.o
                0x0000000080001416                elf_parse
 .text          0x0000000080001850      0x436 out/.//init.o
                0x0000000080001a4e                jump_to_kernel
                0x0000000080001bd6                init
 .text          0x0000000080001c86      0x19a out/.//malloc.o
                0x0000000080001c86                malloc_init
                0x0000000080001cbc                malloc
                0x0000000080001d5e                page_alloc
                0x0000000080001e0e                free
 .text          0x0000000080001e20      0x9bc out/.//vm.o
                0x0000000080001e96                get_child_pgtbl
                0x0000000080001ff6                page_walk
                0x0000000080002116                mmap
                0x000000008000234a                map_range
                0x0000000080002562                early_page_table_init
                0x00000000800027ba                vm_init
 .text          0x00000000800027dc      0x3b6 out/./fs/block_adapter.o
                0x00000000800027dc                block_adapter_register
                0x00000000800028e2                block_adapter_destory
                0x0000000080002900                block_adapter_open
                0x000000008000296a                block_adapter_read
                0x0000000080002a5c                block_adapter_write
                0x0000000080002b4e                block_adapter_get_block_size
                0x0000000080002b70                block_adapter_get_sectors_per_block
 .text          0x0000000080002b92       0xee out/./fs/block_device.o
                0x0000000080002b92                block_device_register
                0x0000000080002c0e                block_device_open
 .text          0x0000000080002c80      0x90c out/./fs/ext2//ext2_block.o
                0x0000000080002d0e                ext2_bno_group
                0x0000000080002d82                ext2_alloc_bno
                0x0000000080002f68                ext2_release_bno
                0x0000000080003284                ext2_block_mapping
 .text          0x000000008000358c     0x10f4 out/./fs/ext2//ext2_cache.o
                0x00000000800035ce                ext2_sync_inode_bitmap_cache
                0x0000000080003742                ext2_load_inode_bitmap_cache
                0x00000000800039fa                ext2_sync_inode_table_cache
                0x0000000080003bb2                ext2_load_inode_table_cache
                0x0000000080003e6e                ext2_select_inode_group
                0x0000000080003f9e                ext2_sync_block_bitmap_cache
                0x000000008000411a                ext2_load_block_bitmap_cache
                0x00000000800043ce                ext2_select_block_group
                0x000000008000453e                ext2_sync_cache
 .text          0x0000000080004680     0x101a out/./fs/ext2//ext2_dir.o
                0x00000000800046fe                ext2_init_dot_entries
                0x000000008000493a                ext2_find
                0x0000000080004b1c                ext2_init_new_inode
                0x000000008000519e                ext2_init_new_entry
                0x000000008000540a                ext2_find_slot
                0x0000000080005536                ext2_add_entry
                0x0000000080005682                ext2_remove_entry
 .text          0x000000008000569a      0x29c out/./fs/ext2//ext2_file.o
                0x00000000800056dc                ext2_file_read
                0x0000000080005916                ext2_file_write
 .text          0x0000000080005936      0xd18 out/./fs/ext2//ext2_inode.o
                0x0000000080005978                ext2_ino_group
                0x00000000800059aa                ext2_alloc_ino
                0x0000000080005ba4                ext2_release_ino
                0x0000000080005da0                ext2_create_inode
                0x00000000800060a6                ext2_new_inode
                0x00000000800061d0                ext2_read_inode
                0x00000000800064a4                ext2_write_inode
 .text          0x000000008000664e      0x374 out/./fs/ext2//ext2_namei.o
                0x0000000080006690                ext2_lookup
                0x0000000080006942                ext2_mkdir
                0x0000000080006976                ext2_rmdir
                0x000000008000698e                ext2_creat
 .text          0x00000000800069c2      0x26e out/./fs/ext2//ext2_page.o
                0x00000000800069c2                ext2_readpage
                0x0000000080006ac6                ext2_writepage
 .text          0x0000000080006c30      0xaf2 out/./fs/ext2//ext2_super.o
                0x0000000080006c72                ext2_fill_super
                0x0000000080007496                ext2_kill_super
                0x00000000800074ca                ext2_sync_super
 .text          0x0000000080007722      0x8e6 out/./fs/vfs//dcache.o
                0x0000000080007884                vfs_create_dentry
                0x0000000080007a14                vfs_destroy_dentry
                0x0000000080007c18                dcache_init
                0x0000000080007c9c                dcache_destroy
                0x0000000080007cbe                dnew
                0x0000000080007e2e                dget
                0x0000000080007f88                dput
 .text          0x0000000080008008       0x30 out/./fs/vfs//fs_init.o
                0x0000000080008008                fs_init
 .text          0x0000000080008038      0x3c4 out/./fs/vfs//fs_type.o
                0x000000008000814e                fs_register
                0x0000000080008272                fs_unregister
                0x0000000080008394                fs_get
 .text          0x00000000800083fc      0x95c out/./fs/vfs//icache.o
                0x0000000080008536                destroy_inode
                0x0000000080008622                create_inode
                0x0000000080008774                inew
                0x0000000080008956                icache_init
                0x00000000800089da                icache_destroy
                0x00000000800089fc                iget
                0x0000000080008b86                iput
                0x0000000080008ce8                icache_sync
 .text          0x0000000080008d58      0x3c4 out/./fs/vfs//mount.o
                0x0000000080008e34                mount
                0x0000000080009048                mount_rootfs
                0x0000000080009104                get_root
 .text          0x000000008000911c      0x3a0 out/./fs/vfs//path.o
                0x000000008000915e                path_split
                0x00000000800092a0                base_dir_split
 .text          0x00000000800094bc      0x6a0 out/./fs/vfs//pcache.o
                0x000000008000982e                pcache_init
                0x00000000800098b2                pcache_destory
                0x00000000800098d4                pget
                0x00000000800099a6                pput
                0x0000000080009a44                vfs_pcache_sync_func
                0x0000000080009aec                pcache_sync
 .text          0x0000000080009b5c      0x2fe out/./fs/vfs//super.o
                0x0000000080009c72                alloc_super
                0x0000000080009d3a                free_super
                0x0000000080009dac                sync_super
 .text          0x0000000080009e5a      0x534 out/./fs/vfs//vfs.o
                0x0000000080009e9c                lookup
                0x0000000080009f92                mkdir
                0x000000008000a09a                rmdir
                0x000000008000a0ae                open
                0x000000008000a134                read
                0x000000008000a26c                write
                0x000000008000a380                vfs_test
 .text          0x000000008000a38e      0x1ec out/./arch/riscv64//symbols.o
                0x000000008000a38e                symbols_init
                0x000000008000a534                zero_bss
 .text          0x000000008000a57a      0x46e out/./arch/riscv64//trap_handler.o
                0x000000008000a6a8                trap_init
                0x000000008000a6c8                s_soft_interrupt_handler
                0x000000008000a6f0                m_soft_interrupt_handler
                0x000000008000a71a                s_timer_interrupt_handler
                0x000000008000a730                m_timer_interrupt_handler
                0x000000008000a746                s_extern_interrupt_handler
                0x000000008000a7b0                m_extern_interrupt_handler
                0x000000008000a81a                trap_handler
                0x000000008000a9d6                page_fault_handler
 .text          0x000000008000a9e8      0x422 out/./drivers/time.o
                0x000000008000ab36                adjust_timezone
                0x000000008000ac8e                system_time_to_unix_timestamp
                0x000000008000ad86                get_current_time
                0x000000008000adca                get_current_unix_timestamp
 .text          0x000000008000ae0a      0x168 out/./drivers/uart.o
                0x000000008000ae0a                uart_init
                0x000000008000aec4                uart_putc
                0x000000008000aefa                uart_getc
                0x000000008000af28                uart_puts
                0x000000008000af64                uart0_iqr
 .text          0x000000008000af72      0x774 out/./drivers/virt_disk.o
                0x000000008000b08c                virt_disk_rw
                0x000000008000b3b0                virt_disk_get_capacity
                0x000000008000b3dc                disk_write_sector
                0x000000008000b40a                disk_read_sector
                0x000000008000b438                virt_disk_init
 .text          0x000000008000b6e6      0x1b2 out/./drivers/virtio.o
                0x000000008000b6e6                virtio_blk_init
 .text          0x000000008000b898      0x44a out/./lib/bitmap.o
                0x000000008000b898                bitmap_create
                0x000000008000b922                bitmap_destory
                0x000000008000b940                bitmap_set_bit
                0x000000008000b9d2                bitmap_clear_bit
                0x000000008000ba68                bitmap_test_bit
                0x000000008000baf0                bitmap_get_size
                0x000000008000bb22                bitmap_update_size
                0x000000008000bb62                bitmap_get_bytes_num
                0x000000008000bb98                bitmap_get_size_in_bytes
                0x000000008000bbd0                bitmap_scan_0
 .text          0x000000008000bce2      0x6a0 out/./lib/hashtable.o
                0x000000008000bddc                hashtable_init
                0x000000008000bfec                hashtable_destroy
                0x000000008000c05c                hashtable_lookup
                0x000000008000c15c                hashtable_insert
                0x000000008000c22e                hashtable_remove
                0x000000008000c2ce                hashtable_size
                0x000000008000c328                hashtable_node_count
 .text          0x000000008000c382      0xc2c out/./lib/lru.o
                0x000000008000c4fc                lru_init
                0x000000008000c6d4                lru_node_init
                0x000000008000c752                lru_destroy
                0x000000008000c802                lru_hash_lookup
                0x000000008000c91a                lru_hash_insert
                0x000000008000ca0c                lru_hash_remove
                0x000000008000cb46                lru_cache_insert
                0x000000008000ccb2                lru_cache_remove
                0x000000008000cdd6                lru_ref
                0x000000008000ce40                lru_unref
                0x000000008000cec8                lru_walk
 .text          0x000000008000cfae      0x4fc out/./lib/printk.o
                0x000000008000cfae                num2char
                0x000000008000d14a                _vsprint
                0x000000008000d36c                _vprint
                0x000000008000d3e6                printk
                0x000000008000d43a                panic
 .text          0x000000008000d4aa      0x348 out/./lib/string.o
                0x000000008000d4aa                memset
                0x000000008000d504                memcpy
                0x000000008000d56a                strcpy
                0x000000008000d5cc                strncpy
                0x000000008000d656                strlen
                0x000000008000d694                strcmp
                0x000000008000d6fa                strncmp
                0x000000008000d79e                strdup
 .text          0x000000008000d7f2       0xca out/./lib/utils.o
                0x000000008000d7f2                next_power_of_two
                0x000000008000d888                is_power_of_two
 .text          0x000000008000d8bc        0x0 out/./arch/riscv64//boot.o
 .text          0x000000008000d8bc       0xca out/./arch/riscv64//trap.o
                0x000000008000d8bc                m_trap_entry
                0x000000008000e000                . = ALIGN (0x1000)
 *fill*         0x000000008000d986      0x67a 
                0x000000008000e000                _text_end = .

.rodata         0x000000008000e000     0x3000
                0x000000008000e000                . = ALIGN (0x1000)
                0x000000008000e000                _rodata_start = .
 *(.rodata .rodata.* .srodata .srodata.*)
 .rodata        0x000000008000e000      0x342 out/.//elf.o
 *fill*         0x000000008000e342        0x6 
 .rodata        0x000000008000e348        0xc out/.//init.o
 *fill*         0x000000008000e354        0x4 
 .rodata        0x000000008000e358       0x1e out/.//malloc.o
 *fill*         0x000000008000e376        0x2 
 .rodata        0x000000008000e378      0x22a out/.//vm.o
 *fill*         0x000000008000e5a2        0x6 
 .srodata       0x000000008000e5a8        0x5 out/.//vm.o
 *fill*         0x000000008000e5ad        0x3 
 .rodata        0x000000008000e5b0      0x13b out/./fs/ext2//ext2_block.o
 *fill*         0x000000008000e6eb        0x5 
 .rodata        0x000000008000e6f0      0x310 out/./fs/ext2//ext2_cache.o
 .rodata        0x000000008000ea00      0x187 out/./fs/ext2//ext2_dir.o
 *fill*         0x000000008000eb87        0x1 
 .rodata        0x000000008000eb88      0x13f out/./fs/ext2//ext2_file.o
 *fill*         0x000000008000ecc7        0x1 
 .rodata        0x000000008000ecc8      0x2d1 out/./fs/ext2//ext2_inode.o
 *fill*         0x000000008000ef99        0x7 
 .rodata        0x000000008000efa0       0xb1 out/./fs/ext2//ext2_namei.o
 *fill*         0x000000008000f051        0x7 
 .rodata        0x000000008000f058      0x340 out/./fs/ext2//ext2_super.o
 .rodata        0x000000008000f398      0x2ac out/./fs/vfs//dcache.o
 *fill*         0x000000008000f644        0x4 
 .srodata       0x000000008000f648       0x15 out/./fs/vfs//dcache.o
 *fill*         0x000000008000f65d        0x3 
 .rodata        0x000000008000f660      0x146 out/./fs/vfs//fs_type.o
 *fill*         0x000000008000f7a6        0x2 
 .rodata        0x000000008000f7a8      0x304 out/./fs/vfs//icache.o
 *fill*         0x000000008000faac        0x4 
 .srodata       0x000000008000fab0       0x15 out/./fs/vfs//icache.o
 *fill*         0x000000008000fac5        0x3 
 .rodata        0x000000008000fac8      0x1f5 out/./fs/vfs//mount.o
 *fill*         0x000000008000fcbd        0x3 
 .srodata       0x000000008000fcc0        0x6 out/./fs/vfs//mount.o
 *fill*         0x000000008000fcc6        0x2 
 .rodata        0x000000008000fcc8       0xa7 out/./fs/vfs//path.o
 *fill*         0x000000008000fd6f        0x1 
 .rodata        0x000000008000fd70      0x21c out/./fs/vfs//pcache.o
 *fill*         0x000000008000ff8c        0x4 
 .srodata       0x000000008000ff90        0x5 out/./fs/vfs//pcache.o
 *fill*         0x000000008000ff95        0x3 
 .rodata        0x000000008000ff98      0x1d3 out/./fs/vfs//super.o
 *fill*         0x000000008001016b        0x5 
 .rodata        0x0000000080010170      0x134 out/./fs/vfs//vfs.o
 *fill*         0x00000000800102a4        0x4 
 .srodata       0x00000000800102a8       0x1e out/./fs/vfs//vfs.o
 *fill*         0x00000000800102c6        0x2 
 .rodata        0x00000000800102c8      0x238 out/./arch/riscv64//trap_handler.o
 .srodata       0x0000000080010500        0x8 out/./drivers/time.o
                0x0000000080010500                system_time
 .rodata        0x0000000080010508        0xc out/./drivers/time.o
 *fill*         0x0000000080010514        0x4 
 .rodata        0x0000000080010518       0x32 out/./drivers/virt_disk.o
 *fill*         0x000000008001054a        0x6 
 .rodata        0x0000000080010550       0x74 out/./lib/bitmap.o
 *fill*         0x00000000800105c4        0x4 
 .rodata        0x00000000800105c8      0x2a5 out/./lib/hashtable.o
 *fill*         0x000000008001086d        0x3 
 .rodata        0x0000000080010870      0x339 out/./lib/lru.o
 *fill*         0x0000000080010ba9        0x7 
 .srodata       0x0000000080010bb0        0x8 out/./lib/lru.o
 .rodata        0x0000000080010bb8       0x8a out/./lib/printk.o
                0x0000000080011000                . = ALIGN (0x1000)
 *fill*         0x0000000080010c42      0x3be 
                0x0000000080011000                _rodata_end = .

.rela.dyn       0x0000000080011000        0x0
 .rela.text     0x0000000080011000        0x0 out/.//elf.o
 .rela.text.boot
                0x0000000080011000        0x0 out/.//elf.o

.data           0x0000000080011000     0x1000
                0x0000000080011000                _data_start = .
                0x0000000080011000                . = ALIGN (0x1000)
 *(.data .data.* .sdata .sdata.*)
 .data          0x0000000080011000        0x0 out/.//elf.o
 .data          0x0000000080011000        0x0 out/.//init.o
 .data          0x0000000080011000        0x0 out/.//malloc.o
 .data          0x0000000080011000        0x0 out/.//vm.o
 .data          0x0000000080011000        0x0 out/./fs/block_adapter.o
 .data          0x0000000080011000        0x0 out/./fs/block_device.o
 .data          0x0000000080011000        0x0 out/./fs/ext2//ext2_block.o
 .data          0x0000000080011000        0x0 out/./fs/ext2//ext2_cache.o
 .data          0x0000000080011000        0x0 out/./fs/ext2//ext2_dir.o
 .data          0x0000000080011000       0x10 out/./fs/ext2//ext2_file.o
                0x0000000080011000                ext2_file_ops
 .data          0x0000000080011010       0x30 out/./fs/ext2//ext2_inode.o
                0x0000000080011010                ext2_s_ops
 .data          0x0000000080011040       0x18 out/./fs/ext2//ext2_namei.o
                0x0000000080011040                ext2_inode_ops
 .data          0x0000000080011058       0x10 out/./fs/ext2//ext2_page.o
                0x0000000080011058                ext2_aops
 .data          0x0000000080011068       0x48 out/./fs/ext2//ext2_super.o
                0x0000000080011068                ext2_fs_type
 .data          0x00000000800110b0        0x0 out/./fs/vfs//dcache.o
 .data          0x00000000800110b0        0x0 out/./fs/vfs//fs_init.o
 .data          0x00000000800110b0       0x10 out/./fs/vfs//fs_type.o
 .data          0x00000000800110c0        0x0 out/./fs/vfs//icache.o
 .data          0x00000000800110c0       0x10 out/./fs/vfs//mount.o
                0x00000000800110c0                vfs_mount_points
 .data          0x00000000800110d0        0x0 out/./fs/vfs//path.o
 .data          0x00000000800110d0        0x0 out/./fs/vfs//pcache.o
 .data          0x00000000800110d0       0x10 out/./fs/vfs//super.o
 .data          0x00000000800110e0        0x0 out/./fs/vfs//vfs.o
 .data          0x00000000800110e0        0x0 out/./arch/riscv64//symbols.o
 .data          0x00000000800110e0       0x58 out/./arch/riscv64//trap_handler.o
                0x00000000800110e0                interrupt_handlers
 .data          0x0000000080011138        0x0 out/./drivers/time.o
 .data          0x0000000080011138        0x0 out/./drivers/uart.o
 .data          0x0000000080011138        0x0 out/./drivers/virt_disk.o
 .data          0x0000000080011138        0x0 out/./drivers/virtio.o
 .sdata         0x0000000080011138        0x8 out/./drivers/virtio.o
                0x0000000080011138                virtio
 .data          0x0000000080011140        0x0 out/./lib/bitmap.o
 .data          0x0000000080011140        0x0 out/./lib/hashtable.o
 .data          0x0000000080011140        0x0 out/./lib/lru.o
 .data          0x0000000080011140        0x0 out/./lib/printk.o
 .data          0x0000000080011140        0x0 out/./lib/string.o
 .data          0x0000000080011140        0x0 out/./lib/utils.o
 .data          0x0000000080011140        0x0 out/./arch/riscv64//boot.o
 .data          0x0000000080011140        0x0 out/./arch/riscv64//trap.o
                0x0000000080012000                . = ALIGN (0x1000)
 *fill*         0x0000000080011140      0xec0 
                0x0000000080012000                _data_end = .

.bss            0x0000000080012000     0x2000
                0x0000000080012000                _bss_start = .
 *(.bss .bss.* .sbss)
 .bss           0x0000000080012000        0x0 out/.//elf.o
 .bss           0x0000000080012000        0x0 out/.//init.o
 .bss           0x0000000080012000       0x10 out/.//malloc.o
 .bss           0x0000000080012010        0x0 out/.//vm.o
 .sbss          0x0000000080012010        0x8 out/.//vm.o
                0x0000000080012010                early_pgd
 .bss           0x0000000080012018      0x100 out/./fs/block_adapter.o
                0x0000000080012018                block_adapter_registry
 .bss           0x0000000080012118      0x1c0 out/./fs/block_device.o
                0x0000000080012118                bdev_registry
 .bss           0x00000000800122d8        0x0 out/./fs/ext2//ext2_block.o
 .sbss          0x00000000800122d8        0xc out/./fs/ext2//ext2_block.o
                0x00000000800122d8                ext2_balloc_lock
                0x00000000800122e0                ext2_bfree_lock
 .bss           0x00000000800122e4        0x0 out/./fs/ext2//ext2_cache.o
 .bss           0x00000000800122e4        0x0 out/./fs/ext2//ext2_dir.o
 .bss           0x00000000800122e4        0x0 out/./fs/ext2//ext2_file.o
 .bss           0x00000000800122e4        0x0 out/./fs/ext2//ext2_inode.o
 .bss           0x00000000800122e4        0x0 out/./fs/ext2//ext2_namei.o
 .bss           0x00000000800122e4        0x0 out/./fs/ext2//ext2_page.o
 .bss           0x00000000800122e4        0x0 out/./fs/ext2//ext2_super.o
 .bss           0x00000000800122e4        0x0 out/./fs/vfs//dcache.o
 *fill*         0x00000000800122e4        0x4 
 .sbss          0x00000000800122e8        0x8 out/./fs/vfs//dcache.o
                0x00000000800122e8                global_dentry_cache
 .bss           0x00000000800122f0        0x0 out/./fs/vfs//fs_init.o
 .bss           0x00000000800122f0        0x0 out/./fs/vfs//fs_type.o
 .bss           0x00000000800122f0        0x0 out/./fs/vfs//icache.o
 .sbss          0x00000000800122f0        0x8 out/./fs/vfs//icache.o
                0x00000000800122f0                global_inode_cache
 .bss           0x00000000800122f8        0x8 out/./fs/vfs//mount.o
 .bss           0x0000000080012300       0x10 out/./fs/vfs//path.o
 .bss           0x0000000080012310        0x0 out/./fs/vfs//pcache.o
 .sbss          0x0000000080012310        0x8 out/./fs/vfs//pcache.o
                0x0000000080012310                global_page_cache
 .bss           0x0000000080012318        0x0 out/./fs/vfs//super.o
 .bss           0x0000000080012318        0x0 out/./fs/vfs//vfs.o
 .sbss          0x0000000080012318        0x8 out/./fs/vfs//vfs.o
                0x0000000080012318                current
 .bss           0x0000000080012320        0x0 out/./arch/riscv64//symbols.o
 .sbss          0x0000000080012320       0x90 out/./arch/riscv64//symbols.o
                0x0000000080012320                boot_text_start
                0x0000000080012328                boot_text_end
                0x0000000080012330                boot_text_size
                0x0000000080012338                boot_rodata_start
                0x0000000080012340                boot_rodata_end
                0x0000000080012348                boot_rodata_size
                0x0000000080012350                boot_data_start
                0x0000000080012358                boot_data_end
                0x0000000080012360                boot_data_size
                0x0000000080012368                boot_bss_start
                0x0000000080012370                boot_bss_end
                0x0000000080012378                boot_bss_size
                0x0000000080012380                boot_stack_start
                0x0000000080012388                boot_stack_end
                0x0000000080012390                boot_stack_size
                0x0000000080012398                boot_heap_start
                0x00000000800123a0                boot_heap_end
                0x00000000800123a8                boot_heap_size
 .bss           0x00000000800123b0        0x0 out/./arch/riscv64//trap_handler.o
 .bss           0x00000000800123b0        0x0 out/./drivers/time.o
 .bss           0x00000000800123b0        0x0 out/./drivers/uart.o
 .bss           0x00000000800123b0      0x150 out/./drivers/virt_disk.o
                0x00000000800123b0                virt_disk
                0x0000000080012468                avail
                0x0000000080012480                used
 .sbss          0x0000000080012500        0x1 out/./drivers/virt_disk.o
                0x0000000080012500                desc
 .bss           0x0000000080012501        0x0 out/./drivers/virtio.o
 .bss           0x0000000080012501        0x0 out/./lib/bitmap.o
 .bss           0x0000000080012501        0x0 out/./lib/hashtable.o
 .bss           0x0000000080012501        0x0 out/./lib/lru.o
 *fill*         0x0000000080012501        0x7 
 .bss           0x0000000080012508     0x1000 out/./lib/printk.o
 .bss           0x0000000080013508        0x0 out/./lib/string.o
 .bss           0x0000000080013508        0x0 out/./lib/utils.o
 .bss           0x0000000080013508        0x0 out/./arch/riscv64//boot.o
 .bss           0x0000000080013508        0x0 out/./arch/riscv64//trap.o
 *(COMMON)
                0x0000000080014000                . = ALIGN (0x1000)
 *fill*         0x0000000080013508      0xaf8 
                0x0000000080014000                _bss_end = .
                0x0000000080014000                . = ALIGN (0x1000)
                0x0000000080014000                _heap_start = .
                0x0000000080200000                _stack_end = (RAM_BASE + RAM_SIZE)
                0x00000000801ff000                _stack_start = (_stack_end - STACK_SIZE)
                0x00000000801ff000                _heap_end = _stack_start
                0x0000000080001000                PROVIDE (__text_start = _text_start)
                0x000000008000e000                PROVIDE (__text_end = _text_end)
                0x000000008000e000                PROVIDE (__rodata_start = _rodata_start)
                0x0000000080011000                PROVIDE (__rodata_end = _rodata_end)
                0x0000000080011000                PROVIDE (__data_start = _data_start)
                0x0000000080012000                PROVIDE (__data_end = _data_end)
                0x0000000080012000                PROVIDE (__bss_start = _bss_start)
                0x0000000080014000                PROVIDE (__bss_end = _bss_end)
                0x00000000801ff000                PROVIDE (__stack_start = _stack_start)
                0x0000000080200000                PROVIDE (__stack_end = _stack_end)
                0x0000000080014000                PROVIDE (__heap_start = _heap_start)
                0x00000000801ff000                PROVIDE (__heap_end = _heap_end)
LOAD out/.//elf.o
LOAD out/.//init.o
LOAD out/.//malloc.o
LOAD out/.//vm.o
LOAD out/./fs/block_adapter.o
LOAD out/./fs/block_device.o
LOAD out/./fs/ext2//ext2_block.o
LOAD out/./fs/ext2//ext2_cache.o
LOAD out/./fs/ext2//ext2_dir.o
LOAD out/./fs/ext2//ext2_file.o
LOAD out/./fs/ext2//ext2_inode.o
LOAD out/./fs/ext2//ext2_namei.o
LOAD out/./fs/ext2//ext2_page.o
LOAD out/./fs/ext2//ext2_super.o
LOAD out/./fs/vfs//dcache.o
LOAD out/./fs/vfs//fs_init.o
LOAD out/./fs/vfs//fs_type.o
LOAD out/./fs/vfs//icache.o
LOAD out/./fs/vfs//mount.o
LOAD out/./fs/vfs//path.o
LOAD out/./fs/vfs//pcache.o
LOAD out/./fs/vfs//super.o
LOAD out/./fs/vfs//vfs.o
LOAD out/./arch/riscv64//symbols.o
LOAD out/./arch/riscv64//trap_handler.o
LOAD out/./drivers/time.o
LOAD out/./drivers/uart.o
LOAD out/./drivers/virt_disk.o
LOAD out/./drivers/virtio.o
LOAD out/./lib/bitmap.o
LOAD out/./lib/hashtable.o
LOAD out/./lib/lru.o
LOAD out/./lib/printk.o
LOAD out/./lib/string.o
LOAD out/./lib/utils.o
LOAD out/./arch/riscv64//boot.o
LOAD out/./arch/riscv64//trap.o
OUTPUT(out/vboot.elf elf64-littleriscv)

.debug_info     0x0000000000000000    0x160bf
 .debug_info    0x0000000000000000      0x41e out/.//elf.o
 .debug_info    0x000000000000041e      0xf3b out/.//init.o
 .debug_info    0x0000000000001359      0x1ae out/.//malloc.o
 .debug_info    0x0000000000001507      0x66d out/.//vm.o
 .debug_info    0x0000000000001b74      0x51c out/./fs/block_adapter.o
 .debug_info    0x0000000000002090      0x214 out/./fs/block_device.o
 .debug_info    0x00000000000022a4     0x1594 out/./fs/ext2//ext2_block.o
 .debug_info    0x0000000000003838     0x1689 out/./fs/ext2//ext2_cache.o
 .debug_info    0x0000000000004ec1     0x135b out/./fs/ext2//ext2_dir.o
 .debug_info    0x000000000000621c      0xb2e out/./fs/ext2//ext2_file.o
 .debug_info    0x0000000000006d4a     0x15ae out/./fs/ext2//ext2_inode.o
 .debug_info    0x00000000000082f8     0x1551 out/./fs/ext2//ext2_namei.o
 .debug_info    0x0000000000009849      0xdb6 out/./fs/ext2//ext2_page.o
 .debug_info    0x000000000000a5ff     0x1516 out/./fs/ext2//ext2_super.o
 .debug_info    0x000000000000bb15     0x10f2 out/./fs/vfs//dcache.o
 .debug_info    0x000000000000cc07      0x962 out/./fs/vfs//fs_init.o
 .debug_info    0x000000000000d569      0xb81 out/./fs/vfs//fs_type.o
 .debug_info    0x000000000000e0ea     0x1205 out/./fs/vfs//icache.o
 .debug_info    0x000000000000f2ef      0xbea out/./fs/vfs//mount.o
 .debug_info    0x000000000000fed9      0x2c2 out/./fs/vfs//path.o
 .debug_info    0x000000000001019b     0x1065 out/./fs/vfs//pcache.o
 .debug_info    0x0000000000011200      0xb9d out/./fs/vfs//super.o
 .debug_info    0x0000000000011d9d      0xd9d out/./fs/vfs//vfs.o
 .debug_info    0x0000000000012b3a      0x2cf out/./arch/riscv64//symbols.o
 .debug_info    0x0000000000012e09      0x544 out/./arch/riscv64//trap_handler.o
 .debug_info    0x000000000001334d      0x3b3 out/./drivers/time.o
 .debug_info    0x0000000000013700      0x19b out/./drivers/uart.o
 .debug_info    0x000000000001389b      0x9e8 out/./drivers/virt_disk.o
 .debug_info    0x0000000000014283      0x2f0 out/./drivers/virtio.o
 .debug_info    0x0000000000014573      0x41d out/./lib/bitmap.o
 .debug_info    0x0000000000014990      0x5df out/./lib/hashtable.o
 .debug_info    0x0000000000014f6f      0x98e out/./lib/lru.o
 .debug_info    0x00000000000158fd      0x377 out/./lib/printk.o
 .debug_info    0x0000000000015c74      0x363 out/./lib/string.o
 .debug_info    0x0000000000015fd7       0x97 out/./lib/utils.o
 .debug_info    0x000000000001606e       0x28 out/./arch/riscv64//boot.o
 .debug_info    0x0000000000016096       0x29 out/./arch/riscv64//trap.o

.debug_abbrev   0x0000000000000000     0x40ec
 .debug_abbrev  0x0000000000000000      0x179 out/.//elf.o
 .debug_abbrev  0x0000000000000179      0x2bd out/.//init.o
 .debug_abbrev  0x0000000000000436      0x123 out/.//malloc.o
 .debug_abbrev  0x0000000000000559      0x1f2 out/.//vm.o
 .debug_abbrev  0x000000000000074b      0x1c0 out/./fs/block_adapter.o
 .debug_abbrev  0x000000000000090b      0x13f out/./fs/block_device.o
 .debug_abbrev  0x0000000000000a4a      0x28b out/./fs/ext2//ext2_block.o
 .debug_abbrev  0x0000000000000cd5      0x23d out/./fs/ext2//ext2_cache.o
 .debug_abbrev  0x0000000000000f12      0x26b out/./fs/ext2//ext2_dir.o
 .debug_abbrev  0x000000000000117d      0x1f6 out/./fs/ext2//ext2_file.o
 .debug_abbrev  0x0000000000001373      0x269 out/./fs/ext2//ext2_inode.o
 .debug_abbrev  0x00000000000015dc      0x281 out/./fs/ext2//ext2_namei.o
 .debug_abbrev  0x000000000000185d      0x1f2 out/./fs/ext2//ext2_page.o
 .debug_abbrev  0x0000000000001a4f      0x282 out/./fs/ext2//ext2_super.o
 .debug_abbrev  0x0000000000001cd1      0x27b out/./fs/vfs//dcache.o
 .debug_abbrev  0x0000000000001f4c      0x18d out/./fs/vfs//fs_init.o
 .debug_abbrev  0x00000000000020d9      0x1e9 out/./fs/vfs//fs_type.o
 .debug_abbrev  0x00000000000022c2      0x2b3 out/./fs/vfs//icache.o
 .debug_abbrev  0x0000000000002575      0x228 out/./fs/vfs//mount.o
 .debug_abbrev  0x000000000000279d      0x138 out/./fs/vfs//path.o
 .debug_abbrev  0x00000000000028d5      0x28f out/./fs/vfs//pcache.o
 .debug_abbrev  0x0000000000002b64      0x220 out/./fs/vfs//super.o
 .debug_abbrev  0x0000000000002d84      0x23f out/./fs/vfs//vfs.o
 .debug_abbrev  0x0000000000002fc3       0xc3 out/./arch/riscv64//symbols.o
 .debug_abbrev  0x0000000000003086      0x26c out/./arch/riscv64//trap_handler.o
 .debug_abbrev  0x00000000000032f2      0x1b7 out/./drivers/time.o
 .debug_abbrev  0x00000000000034a9      0x119 out/./drivers/uart.o
 .debug_abbrev  0x00000000000035c2      0x232 out/./drivers/virt_disk.o
 .debug_abbrev  0x00000000000037f4       0xe8 out/./drivers/virtio.o
 .debug_abbrev  0x00000000000038dc      0x181 out/./lib/bitmap.o
 .debug_abbrev  0x0000000000003a5d      0x1b6 out/./lib/hashtable.o
 .debug_abbrev  0x0000000000003c13      0x1d7 out/./lib/lru.o
 .debug_abbrev  0x0000000000003dea      0x15d out/./lib/printk.o
 .debug_abbrev  0x0000000000003f47      0x109 out/./lib/string.o
 .debug_abbrev  0x0000000000004050       0x74 out/./lib/utils.o
 .debug_abbrev  0x00000000000040c4       0x14 out/./arch/riscv64//boot.o
 .debug_abbrev  0x00000000000040d8       0x14 out/./arch/riscv64//trap.o

.debug_aranges  0x0000000000000000      0x6f0
 .debug_aranges
                0x0000000000000000       0x30 out/.//elf.o
 .debug_aranges
                0x0000000000000030       0x30 out/.//init.o
 .debug_aranges
                0x0000000000000060       0x30 out/.//malloc.o
 .debug_aranges
                0x0000000000000090       0x30 out/.//vm.o
 .debug_aranges
                0x00000000000000c0       0x30 out/./fs/block_adapter.o
 .debug_aranges
                0x00000000000000f0       0x30 out/./fs/block_device.o
 .debug_aranges
                0x0000000000000120       0x30 out/./fs/ext2//ext2_block.o
 .debug_aranges
                0x0000000000000150       0x30 out/./fs/ext2//ext2_cache.o
 .debug_aranges
                0x0000000000000180       0x30 out/./fs/ext2//ext2_dir.o
 .debug_aranges
                0x00000000000001b0       0x30 out/./fs/ext2//ext2_file.o
 .debug_aranges
                0x00000000000001e0       0x30 out/./fs/ext2//ext2_inode.o
 .debug_aranges
                0x0000000000000210       0x30 out/./fs/ext2//ext2_namei.o
 .debug_aranges
                0x0000000000000240       0x30 out/./fs/ext2//ext2_page.o
 .debug_aranges
                0x0000000000000270       0x30 out/./fs/ext2//ext2_super.o
 .debug_aranges
                0x00000000000002a0       0x30 out/./fs/vfs//dcache.o
 .debug_aranges
                0x00000000000002d0       0x30 out/./fs/vfs//fs_init.o
 .debug_aranges
                0x0000000000000300       0x30 out/./fs/vfs//fs_type.o
 .debug_aranges
                0x0000000000000330       0x30 out/./fs/vfs//icache.o
 .debug_aranges
                0x0000000000000360       0x30 out/./fs/vfs//mount.o
 .debug_aranges
                0x0000000000000390       0x30 out/./fs/vfs//path.o
 .debug_aranges
                0x00000000000003c0       0x30 out/./fs/vfs//pcache.o
 .debug_aranges
                0x00000000000003f0       0x30 out/./fs/vfs//super.o
 .debug_aranges
                0x0000000000000420       0x30 out/./fs/vfs//vfs.o
 .debug_aranges
                0x0000000000000450       0x30 out/./arch/riscv64//symbols.o
 .debug_aranges
                0x0000000000000480       0x30 out/./arch/riscv64//trap_handler.o
 .debug_aranges
                0x00000000000004b0       0x30 out/./drivers/time.o
 .debug_aranges
                0x00000000000004e0       0x30 out/./drivers/uart.o
 .debug_aranges
                0x0000000000000510       0x30 out/./drivers/virt_disk.o
 .debug_aranges
                0x0000000000000540       0x30 out/./drivers/virtio.o
 .debug_aranges
                0x0000000000000570       0x30 out/./lib/bitmap.o
 .debug_aranges
                0x00000000000005a0       0x30 out/./lib/hashtable.o
 .debug_aranges
                0x00000000000005d0       0x30 out/./lib/lru.o
 .debug_aranges
                0x0000000000000600       0x30 out/./lib/printk.o
 .debug_aranges
                0x0000000000000630       0x30 out/./lib/string.o
 .debug_aranges
                0x0000000000000660       0x30 out/./lib/utils.o
 .debug_aranges
                0x0000000000000690       0x30 out/./arch/riscv64//boot.o
 .debug_aranges
                0x00000000000006c0       0x30 out/./arch/riscv64//trap.o

.debug_line     0x0000000000000000     0xabb9
 .debug_line    0x0000000000000000      0x46c out/.//elf.o
 .debug_line    0x000000000000046c      0x4a5 out/.//init.o
 .debug_line    0x0000000000000911      0x181 out/.//malloc.o
 .debug_line    0x0000000000000a92      0x701 out/.//vm.o
 .debug_line    0x0000000000001193      0x42c out/./fs/block_adapter.o
 .debug_line    0x00000000000015bf      0x125 out/./fs/block_device.o
 .debug_line    0x00000000000016e4      0x621 out/./fs/ext2//ext2_block.o
 .debug_line    0x0000000000001d05      0xdb0 out/./fs/ext2//ext2_cache.o
 .debug_line    0x0000000000002ab5      0x948 out/./fs/ext2//ext2_dir.o
 .debug_line    0x00000000000033fd      0x2ca out/./fs/ext2//ext2_file.o
 .debug_line    0x00000000000036c7      0x81b out/./fs/ext2//ext2_inode.o
 .debug_line    0x0000000000003ee2      0x306 out/./fs/ext2//ext2_namei.o
 .debug_line    0x00000000000041e8      0x2b4 out/./fs/ext2//ext2_page.o
 .debug_line    0x000000000000449c      0x82e out/./fs/ext2//ext2_super.o
 .debug_line    0x0000000000004cca      0x7d6 out/./fs/vfs//dcache.o
 .debug_line    0x00000000000054a0       0xda out/./fs/vfs//fs_init.o
 .debug_line    0x000000000000557a      0x328 out/./fs/vfs//fs_type.o
 .debug_line    0x00000000000058a2      0x8ce out/./fs/vfs//icache.o
 .debug_line    0x0000000000006170      0x32e out/./fs/vfs//mount.o
 .debug_line    0x000000000000649e      0x352 out/./fs/vfs//path.o
 .debug_line    0x00000000000067f0      0x643 out/./fs/vfs//pcache.o
 .debug_line    0x0000000000006e33      0x28f out/./fs/vfs//super.o
 .debug_line    0x00000000000070c2      0x4c9 out/./fs/vfs//vfs.o
 .debug_line    0x000000000000758b      0x1c7 out/./arch/riscv64//symbols.o
 .debug_line    0x0000000000007752      0x445 out/./arch/riscv64//trap_handler.o
 .debug_line    0x0000000000007b97      0x450 out/./drivers/time.o
 .debug_line    0x0000000000007fe7      0x1c5 out/./drivers/uart.o
 .debug_line    0x00000000000081ac      0x813 out/./drivers/virt_disk.o
 .debug_line    0x00000000000089bf      0x1d4 out/./drivers/virtio.o
 .debug_line    0x0000000000008b93      0x440 out/./lib/bitmap.o
 .debug_line    0x0000000000008fd3      0x5d2 out/./lib/hashtable.o
 .debug_line    0x00000000000095a5      0x936 out/./lib/lru.o
 .debug_line    0x0000000000009edb      0x4da out/./lib/printk.o
 .debug_line    0x000000000000a3b5      0x3fa out/./lib/string.o
 .debug_line    0x000000000000a7af      0x12a out/./lib/utils.o
 .debug_line    0x000000000000a8d9       0x94 out/./arch/riscv64//boot.o
 .debug_line    0x000000000000a96d      0x24c out/./arch/riscv64//trap.o

.debug_str      0x0000000000000000     0x2519
 .debug_str     0x0000000000000000     0x2519 out/.//elf.o
                                        0x263 (size before relaxing)
 .debug_str     0x0000000000002519      0x765 out/.//init.o
 .debug_str     0x0000000000002519      0x14e out/.//malloc.o
 .debug_str     0x0000000000002519      0x301 out/.//vm.o
 .debug_str     0x0000000000002519      0x298 out/./fs/block_adapter.o
 .debug_str     0x0000000000002519      0x163 out/./fs/block_device.o
 .debug_str     0x0000000000002519      0xccd out/./fs/ext2//ext2_block.o
 .debug_str     0x0000000000002519      0xc92 out/./fs/ext2//ext2_cache.o
 .debug_str     0x0000000000002519      0x9a5 out/./fs/ext2//ext2_dir.o
 .debug_str     0x0000000000002519      0x600 out/./fs/ext2//ext2_file.o
 .debug_str     0x0000000000002519      0xca0 out/./fs/ext2//ext2_inode.o
 .debug_str     0x0000000000002519      0xd2b out/./fs/ext2//ext2_namei.o
 .debug_str     0x0000000000002519      0x76e out/./fs/ext2//ext2_page.o
 .debug_str     0x0000000000002519      0xce1 out/./fs/ext2//ext2_super.o
 .debug_str     0x0000000000002519      0x7af out/./fs/vfs//dcache.o
 .debug_str     0x0000000000002519      0x59e out/./fs/vfs//fs_init.o
 .debug_str     0x0000000000002519      0x5e2 out/./fs/vfs//fs_type.o
 .debug_str     0x0000000000002519      0x8a7 out/./fs/vfs//icache.o
 .debug_str     0x0000000000002519      0x651 out/./fs/vfs//mount.o
 .debug_str     0x0000000000002519      0x183 out/./fs/vfs//path.o
 .debug_str     0x0000000000002519      0x7a7 out/./fs/vfs//pcache.o
 .debug_str     0x0000000000002519      0x5f6 out/./fs/vfs//super.o
 .debug_str     0x0000000000002519      0x659 out/./fs/vfs//vfs.o
 .debug_str     0x0000000000002519      0x29c out/./arch/riscv64//symbols.o
 .debug_str     0x0000000000002519      0x29e out/./arch/riscv64//trap_handler.o
 .debug_str     0x0000000000002519      0x226 out/./drivers/time.o
 .debug_str     0x0000000000002519      0x12b out/./drivers/uart.o
 .debug_str     0x0000000000002519      0x580 out/./drivers/virt_disk.o
 .debug_str     0x0000000000002519      0x2b2 out/./drivers/virtio.o
 .debug_str     0x0000000000002519      0x1d4 out/./lib/bitmap.o
 .debug_str     0x0000000000002519      0x268 out/./lib/hashtable.o
 .debug_str     0x0000000000002519      0x33e out/./lib/lru.o
 .debug_str     0x0000000000002519      0x189 out/./lib/printk.o
 .debug_str     0x0000000000002519      0x126 out/./lib/string.o
 .debug_str     0x0000000000002519       0x9f out/./lib/utils.o
 .debug_str     0x0000000000002519       0x31 out/./arch/riscv64//boot.o
 .debug_str     0x0000000000002519       0x31 out/./arch/riscv64//trap.o

.debug_line_str
                0x0000000000000000      0x49c
 .debug_line_str
                0x0000000000000000      0x49c out/.//elf.o
                                         0x69 (size before relaxing)
 .debug_line_str
                0x000000000000049c      0x104 out/.//init.o
 .debug_line_str
                0x000000000000049c       0x6b out/.//malloc.o
 .debug_line_str
                0x000000000000049c       0x8b out/.//vm.o
 .debug_line_str
                0x000000000000049c       0x87 out/./fs/block_adapter.o
 .debug_line_str
                0x000000000000049c       0x79 out/./fs/block_device.o
 .debug_line_str
                0x000000000000049c      0x11f out/./fs/ext2//ext2_block.o
 .debug_line_str
                0x000000000000049c      0x112 out/./fs/ext2//ext2_cache.o
 .debug_line_str
                0x000000000000049c      0x11b out/./fs/ext2//ext2_dir.o
 .debug_line_str
                0x000000000000049c       0xf0 out/./fs/ext2//ext2_file.o
 .debug_line_str
                0x000000000000049c      0x14a out/./fs/ext2//ext2_inode.o
 .debug_line_str
                0x000000000000049c      0x132 out/./fs/ext2//ext2_namei.o
 .debug_line_str
                0x000000000000049c      0x100 out/./fs/ext2//ext2_page.o
 .debug_line_str
                0x000000000000049c      0x128 out/./fs/ext2//ext2_super.o
 .debug_line_str
                0x000000000000049c       0xea out/./fs/vfs//dcache.o
 .debug_line_str
                0x000000000000049c      0x100 out/./fs/vfs//fs_init.o
 .debug_line_str
                0x000000000000049c       0xd6 out/./fs/vfs//fs_type.o
 .debug_line_str
                0x000000000000049c       0xf3 out/./fs/vfs//icache.o
 .debug_line_str
                0x000000000000049c       0xe5 out/./fs/vfs//mount.o
 .debug_line_str
                0x000000000000049c       0x6d out/./fs/vfs//path.o
 .debug_line_str
                0x000000000000049c       0xea out/./fs/vfs//pcache.o
 .debug_line_str
                0x000000000000049c       0xdb out/./fs/vfs//super.o
 .debug_line_str
                0x000000000000049c       0xed out/./fs/vfs//vfs.o
 .debug_line_str
                0x000000000000049c       0x68 out/./arch/riscv64//symbols.o
 .debug_line_str
                0x000000000000049c       0xab out/./arch/riscv64//trap_handler.o
 .debug_line_str
                0x000000000000049c       0x5a out/./drivers/time.o
 .debug_line_str
                0x000000000000049c       0x53 out/./drivers/uart.o
 .debug_line_str
                0x000000000000049c       0xa8 out/./drivers/virt_disk.o
 .debug_line_str
                0x000000000000049c       0x62 out/./drivers/virtio.o
 .debug_line_str
                0x000000000000049c       0x68 out/./lib/bitmap.o
 .debug_line_str
                0x000000000000049c       0x80 out/./lib/hashtable.o
 .debug_line_str
                0x000000000000049c       0x87 out/./lib/lru.o
 .debug_line_str
                0x000000000000049c       0x8d out/./lib/printk.o
 .debug_line_str
                0x000000000000049c       0x56 out/./lib/string.o
 .debug_line_str
                0x000000000000049c       0x40 out/./lib/utils.o
 .debug_line_str
                0x000000000000049c       0x25 out/./arch/riscv64//boot.o
 .debug_line_str
                0x000000000000049c       0x25 out/./arch/riscv64//trap.o

.comment        0x0000000000000000       0x22
 .comment       0x0000000000000000       0x22 out/.//elf.o
                                         0x23 (size before relaxing)
 .comment       0x0000000000000022       0x23 out/.//init.o
 .comment       0x0000000000000022       0x23 out/.//malloc.o
 .comment       0x0000000000000022       0x23 out/.//vm.o
 .comment       0x0000000000000022       0x23 out/./fs/block_adapter.o
 .comment       0x0000000000000022       0x23 out/./fs/block_device.o
 .comment       0x0000000000000022       0x23 out/./fs/ext2//ext2_block.o
 .comment       0x0000000000000022       0x23 out/./fs/ext2//ext2_cache.o
 .comment       0x0000000000000022       0x23 out/./fs/ext2//ext2_dir.o
 .comment       0x0000000000000022       0x23 out/./fs/ext2//ext2_file.o
 .comment       0x0000000000000022       0x23 out/./fs/ext2//ext2_inode.o
 .comment       0x0000000000000022       0x23 out/./fs/ext2//ext2_namei.o
 .comment       0x0000000000000022       0x23 out/./fs/ext2//ext2_page.o
 .comment       0x0000000000000022       0x23 out/./fs/ext2//ext2_super.o
 .comment       0x0000000000000022       0x23 out/./fs/vfs//dcache.o
 .comment       0x0000000000000022       0x23 out/./fs/vfs//fs_init.o
 .comment       0x0000000000000022       0x23 out/./fs/vfs//fs_type.o
 .comment       0x0000000000000022       0x23 out/./fs/vfs//icache.o
 .comment       0x0000000000000022       0x23 out/./fs/vfs//mount.o
 .comment       0x0000000000000022       0x23 out/./fs/vfs//path.o
 .comment       0x0000000000000022       0x23 out/./fs/vfs//pcache.o
 .comment       0x0000000000000022       0x23 out/./fs/vfs//super.o
 .comment       0x0000000000000022       0x23 out/./fs/vfs//vfs.o
 .comment       0x0000000000000022       0x23 out/./arch/riscv64//symbols.o
 .comment       0x0000000000000022       0x23 out/./arch/riscv64//trap_handler.o
 .comment       0x0000000000000022       0x23 out/./drivers/time.o
 .comment       0x0000000000000022       0x23 out/./drivers/uart.o
 .comment       0x0000000000000022       0x23 out/./drivers/virt_disk.o
 .comment       0x0000000000000022       0x23 out/./drivers/virtio.o
 .comment       0x0000000000000022       0x23 out/./lib/bitmap.o
 .comment       0x0000000000000022       0x23 out/./lib/hashtable.o
 .comment       0x0000000000000022       0x23 out/./lib/lru.o
 .comment       0x0000000000000022       0x23 out/./lib/printk.o
 .comment       0x0000000000000022       0x23 out/./lib/string.o
 .comment       0x0000000000000022       0x23 out/./lib/utils.o

.riscv.attributes
                0x0000000000000000       0x57
 .riscv.attributes
                0x0000000000000000       0x53 out/.//elf.o
 .riscv.attributes
                0x0000000000000053       0x57 out/.//init.o
 .riscv.attributes
                0x00000000000000aa       0x53 out/.//malloc.o
 .riscv.attributes
                0x00000000000000fd       0x57 out/.//vm.o
 .riscv.attributes
                0x0000000000000154       0x53 out/./fs/block_adapter.o
 .riscv.attributes
                0x00000000000001a7       0x53 out/./fs/block_device.o
 .riscv.attributes
                0x00000000000001fa       0x53 out/./fs/ext2//ext2_block.o
 .riscv.attributes
                0x000000000000024d       0x53 out/./fs/ext2//ext2_cache.o
 .riscv.attributes
                0x00000000000002a0       0x53 out/./fs/ext2//ext2_dir.o
 .riscv.attributes
                0x00000000000002f3       0x53 out/./fs/ext2//ext2_file.o
 .riscv.attributes
                0x0000000000000346       0x53 out/./fs/ext2//ext2_inode.o
 .riscv.attributes
                0x0000000000000399       0x53 out/./fs/ext2//ext2_namei.o
 .riscv.attributes
                0x00000000000003ec       0x53 out/./fs/ext2//ext2_page.o
 .riscv.attributes
                0x000000000000043f       0x53 out/./fs/ext2//ext2_super.o
 .riscv.attributes
                0x0000000000000492       0x53 out/./fs/vfs//dcache.o
 .riscv.attributes
                0x00000000000004e5       0x53 out/./fs/vfs//fs_init.o
 .riscv.attributes
                0x0000000000000538       0x53 out/./fs/vfs//fs_type.o
 .riscv.attributes
                0x000000000000058b       0x53 out/./fs/vfs//icache.o
 .riscv.attributes
                0x00000000000005de       0x53 out/./fs/vfs//mount.o
 .riscv.attributes
                0x0000000000000631       0x53 out/./fs/vfs//path.o
 .riscv.attributes
                0x0000000000000684       0x53 out/./fs/vfs//pcache.o
 .riscv.attributes
                0x00000000000006d7       0x53 out/./fs/vfs//super.o
 .riscv.attributes
                0x000000000000072a       0x53 out/./fs/vfs//vfs.o
 .riscv.attributes
                0x000000000000077d       0x53 out/./arch/riscv64//symbols.o
 .riscv.attributes
                0x00000000000007d0       0x57 out/./arch/riscv64//trap_handler.o
 .riscv.attributes
                0x0000000000000827       0x53 out/./drivers/time.o
 .riscv.attributes
                0x000000000000087a       0x53 out/./drivers/uart.o
 .riscv.attributes
                0x00000000000008cd       0x53 out/./drivers/virt_disk.o
 .riscv.attributes
                0x0000000000000920       0x53 out/./drivers/virtio.o
 .riscv.attributes
                0x0000000000000973       0x53 out/./lib/bitmap.o
 .riscv.attributes
                0x00000000000009c6       0x53 out/./lib/hashtable.o
 .riscv.attributes
                0x0000000000000a19       0x53 out/./lib/lru.o
 .riscv.attributes
                0x0000000000000a6c       0x53 out/./lib/printk.o
 .riscv.attributes
                0x0000000000000abf       0x53 out/./lib/string.o
 .riscv.attributes
                0x0000000000000b12       0x53 out/./lib/utils.o
 .riscv.attributes
                0x0000000000000b65       0x55 out/./arch/riscv64//boot.o
 .riscv.attributes
                0x0000000000000bba       0x55 out/./arch/riscv64//trap.o

.debug_frame    0x0000000000000000     0x3710
 .debug_frame   0x0000000000000000       0xa0 out/.//elf.o
 .debug_frame   0x00000000000000a0      0x400 out/.//init.o
 .debug_frame   0x00000000000004a0       0xd0 out/.//malloc.o
 .debug_frame   0x0000000000000570      0x1c8 out/.//vm.o
 .debug_frame   0x0000000000000738      0x160 out/./fs/block_adapter.o
 .debug_frame   0x0000000000000898       0x70 out/./fs/block_device.o
 .debug_frame   0x0000000000000908      0x190 out/./fs/ext2//ext2_block.o
 .debug_frame   0x0000000000000a98      0x1f0 out/./fs/ext2//ext2_cache.o
 .debug_frame   0x0000000000000c88      0x1f0 out/./fs/ext2//ext2_dir.o
 .debug_frame   0x0000000000000e78       0xa0 out/./fs/ext2//ext2_file.o
 .debug_frame   0x0000000000000f18      0x190 out/./fs/ext2//ext2_inode.o
 .debug_frame   0x00000000000010a8      0x138 out/./fs/ext2//ext2_namei.o
 .debug_frame   0x00000000000011e0       0x70 out/./fs/ext2//ext2_page.o
 .debug_frame   0x0000000000001250       0xd8 out/./fs/ext2//ext2_super.o
 .debug_frame   0x0000000000001328      0x3a8 out/./fs/vfs//dcache.o
 .debug_frame   0x00000000000016d0       0x40 out/./fs/vfs//fs_init.o
 .debug_frame   0x0000000000001710      0x190 out/./fs/vfs//fs_type.o
 .debug_frame   0x00000000000018a0      0x3b0 out/./fs/vfs//icache.o
 .debug_frame   0x0000000000001c50      0x160 out/./fs/vfs//mount.o
 .debug_frame   0x0000000000001db0       0xa0 out/./fs/vfs//path.o
 .debug_frame   0x0000000000001e50      0x348 out/./fs/vfs//pcache.o
 .debug_frame   0x0000000000002198      0x190 out/./fs/vfs//super.o
 .debug_frame   0x0000000000002328      0x190 out/./fs/vfs//vfs.o
 .debug_frame   0x00000000000024b8       0x70 out/./arch/riscv64//symbols.o
 .debug_frame   0x0000000000002528      0x370 out/./arch/riscv64//trap_handler.o
 .debug_frame   0x0000000000002898      0x130 out/./drivers/time.o
 .debug_frame   0x00000000000029c8      0x100 out/./drivers/uart.o
 .debug_frame   0x0000000000002ac8      0x190 out/./drivers/virt_disk.o
 .debug_frame   0x0000000000002c58       0x40 out/./drivers/virtio.o
 .debug_frame   0x0000000000002c98      0x1f0 out/./lib/bitmap.o
 .debug_frame   0x0000000000002e88      0x220 out/./lib/hashtable.o
 .debug_frame   0x00000000000030a8      0x370 out/./lib/lru.o
 .debug_frame   0x0000000000003418       0xf8 out/./lib/printk.o
 .debug_frame   0x0000000000003510      0x190 out/./lib/string.o
 .debug_frame   0x00000000000036a0       0x70 out/./lib/utils.o

.debug_rnglists
                0x0000000000000000       0x17
 .debug_rnglists
                0x0000000000000000       0x17 out/./drivers/virt_disk.o
